target datalayout = "e-m:e-p270:32:32-p271:32:32-p272:64:64-i64:64-i128:128-f80:128-n8:16:32:64-S128"
target triple = "x86_64-pc-linux-gnu"

%struct.Node = type { i32 }
%struct.List = type { i32, i32, i32, ptr, [0 x %union.ListCell] }
%union.ListCell = type { ptr }
%struct.PLpgSQL_expr = type { ptr, i32, ptr, ptr, i32, i8, ptr, ptr, ptr, i32, i32, i8, i32, ptr, ptr, ptr, i32, ptr, i8, i32 }
%struct.CachedPlan = type { i32, ptr, i8, i8, i8, i32, i8, i32, i32, i32, ptr }
%struct.PlannedStmt = type { i32, i32, i64, i8, i8, i8, i8, i8, i8, i32, ptr, ptr, ptr, ptr, ptr, ptr, ptr, ptr, ptr, ptr, ptr, ptr, ptr, ptr, i32, i32 }
%struct.Plan = type { i32, i32, double, double, double, i32, i8, i8, i8, i32, ptr, ptr, ptr, ptr, ptr, ptr, ptr }
%struct.TargetEntry = type { %struct.Expr, ptr, i16, ptr, i32, i32, i16, i8 }
%struct.Expr = type { i32 }

@.str.2 = private unnamed_addr constant [11 x i8] c"plpgsql-18\00", align 1
@.str.4 = private unnamed_addr constant [10 x i8] c"pl_exec.c\00", align 1
@.str.32 = private unnamed_addr constant [30 x i8] c"unexpected plan node type: %d\00", align 1
@__func__.exec_save_simple_expr = private unnamed_addr constant [22 x i8] c"exec_save_simple_expr\00", align 1

; Function Attrs: inlinehint nounwind uwtable
define internal ptr @list_nth_cell(ptr noundef %0, i32 noundef %1) #2 {
  %3 = alloca ptr, align 8
  %4 = alloca i32, align 4
  store ptr %0, ptr %3, align 8
  store i32 %1, ptr %4, align 4
  %5 = load ptr, ptr %3, align 8
  %6 = getelementptr inbounds nuw %struct.List, ptr %5, i32 0, i32 3
  %7 = load ptr, ptr %6, align 8
  %8 = load i32, ptr %4, align 4
  %9 = sext i32 %8 to i64
  %10 = getelementptr inbounds %union.ListCell, ptr %7, i64 %9
  ret ptr %10
}

; Function Attrs: nounwind uwtable
define internal void @exec_save_simple_expr(ptr noundef %0, ptr noundef %1) #0 {
  %3 = alloca ptr, align 8
  %4 = alloca ptr, align 8
  %5 = alloca ptr, align 8
  %6 = alloca ptr, align 8
  %7 = alloca ptr, align 8
  store ptr %0, ptr %3, align 8
  store ptr %1, ptr %4, align 8
  call void @llvm.lifetime.start.p0(i64 8, ptr %5) #12
  call void @llvm.lifetime.start.p0(i64 8, ptr %6) #12
  call void @llvm.lifetime.start.p0(i64 8, ptr %7) #12
  %8 = load ptr, ptr %4, align 8
  %9 = getelementptr inbounds nuw %struct.CachedPlan, ptr %8, i32 0, i32 1
  %10 = load ptr, ptr %9, align 8
  %11 = call ptr @list_nth_cell(ptr noundef %10, i32 noundef 0)
  %12 = load ptr, ptr %11, align 8
  store ptr %12, ptr %5, align 8
  %13 = load ptr, ptr %5, align 8
  %14 = getelementptr inbounds nuw %struct.PlannedStmt, ptr %13, i32 0, i32 10
  %15 = load ptr, ptr %14, align 8
  store ptr %15, ptr %6, align 8
  br label %16

16:                                               ; preds = %59, %2
  %17 = load ptr, ptr %6, align 8
  %18 = getelementptr inbounds nuw %struct.Plan, ptr %17, i32 0, i32 10
  %19 = load ptr, ptr %18, align 8
  %20 = call ptr @list_nth_cell(ptr noundef %19, i32 noundef 0)
  %21 = load ptr, ptr %20, align 8
  %22 = getelementptr inbounds nuw %struct.TargetEntry, ptr %21, i32 0, i32 1
  %23 = load ptr, ptr %22, align 8
  store ptr %23, ptr %7, align 8
  %24 = load ptr, ptr %6, align 8
  %25 = getelementptr inbounds nuw %struct.Node, ptr %24, i32 0, i32 0
  %26 = load i32, ptr %25, align 4
  %27 = icmp eq i32 %26, 330
  br i1 %27, label %28, label %29

28:                                               ; preds = %16
  br label %60

29:                                               ; preds = %16
  %30 = load ptr, ptr %6, align 8
  %31 = getelementptr inbounds nuw %struct.Node, ptr %30, i32 0, i32 0
  %32 = load i32, ptr %31, align 4
  %33 = icmp eq i32 %32, 367
  br i1 %33, label %34, label %44

34:                                               ; preds = %29
  %35 = load ptr, ptr %7, align 8
  %36 = getelementptr inbounds nuw %struct.Node, ptr %35, i32 0, i32 0
  %37 = load i32, ptr %36, align 4
  %38 = icmp eq i32 %37, 7
  br i1 %38, label %39, label %40

39:                                               ; preds = %34
  br label %60

40:                                               ; preds = %34
  %41 = load ptr, ptr %6, align 8
  %42 = getelementptr inbounds nuw %struct.Plan, ptr %41, i32 0, i32 12
  %43 = load ptr, ptr %42, align 8
  store ptr %43, ptr %6, align 8
  br label %58

44:                                               ; preds = %29
  br label %45

45:                                               ; preds = %44
  br i1 true, label %46, label %48

46:                                               ; preds = %45
  %47 = call zeroext i1 @errstart_cold(i32 noundef 21, ptr noundef @.str.2) #13
  br i1 %47, label %50, label %55

48:                                               ; preds = %45
  %49 = call zeroext i1 @errstart(i32 noundef 21, ptr noundef @.str.2)
  br i1 %49, label %50, label %55

50:                                               ; preds = %48, %46
  %51 = load ptr, ptr %6, align 8
  %52 = getelementptr inbounds nuw %struct.Node, ptr %51, i32 0, i32 0
  %53 = load i32, ptr %52, align 4
  %54 = call i32 (ptr, ...) @errmsg_internal(ptr noundef @.str.32, i32 noundef %53)
  call void @errfinish(ptr noundef @.str.4, i32 noundef 8343, ptr noundef @__func__.exec_save_simple_expr)
  br label %55

55:                                               ; preds = %50, %48, %46
  unreachable

56:                                               ; No predecessors!
  br label %57

57:                                               ; preds = %56
  br label %58

58:                                               ; preds = %57, %40
  br label %59

59:                                               ; preds = %58
  br label %16

60:                                               ; preds = %39, %28
  %61 = load ptr, ptr %7, align 8
  %62 = load ptr, ptr %3, align 8
  %63 = getelementptr inbounds nuw %struct.PLpgSQL_expr, ptr %62, i32 0, i32 8
  store ptr %61, ptr %63, align 8
  %64 = load ptr, ptr %3, align 8
  %65 = getelementptr inbounds nuw %struct.PLpgSQL_expr, ptr %64, i32 0, i32 17
  store ptr null, ptr %65, align 8
  %66 = load ptr, ptr %3, align 8
  %67 = getelementptr inbounds nuw %struct.PLpgSQL_expr, ptr %66, i32 0, i32 18
  store i8 0, ptr %67, align 8
  %68 = load ptr, ptr %3, align 8
  %69 = getelementptr inbounds nuw %struct.PLpgSQL_expr, ptr %68, i32 0, i32 19
  store i32 0, ptr %69, align 4
  %70 = load ptr, ptr %7, align 8
  %71 = call i32 @exprType(ptr noundef %70)
  %72 = load ptr, ptr %3, align 8
  %73 = getelementptr inbounds nuw %struct.PLpgSQL_expr, ptr %72, i32 0, i32 9
  store i32 %71, ptr %73, align 8
  %74 = load ptr, ptr %7, align 8
  %75 = call i32 @exprTypmod(ptr noundef %74)
  %76 = load ptr, ptr %3, align 8
  %77 = getelementptr inbounds nuw %struct.PLpgSQL_expr, ptr %76, i32 0, i32 10
  store i32 %75, ptr %77, align 4
  %78 = load ptr, ptr %7, align 8
  %79 = call zeroext i1 @contain_mutable_functions(ptr noundef %78)
  %80 = load ptr, ptr %3, align 8
  %81 = getelementptr inbounds nuw %struct.PLpgSQL_expr, ptr %80, i32 0, i32 11
  %82 = zext i1 %79 to i8
  store i8 %82, ptr %81, align 8
  call void @llvm.lifetime.end.p0(i64 8, ptr %7) #12
  call void @llvm.lifetime.end.p0(i64 8, ptr %6) #12
  call void @llvm.lifetime.end.p0(i64 8, ptr %5) #12
  ret void
}