; Function Attrs: nounwind uwtable
define internal fastcc void @exec_save_simple_expr(ptr noundef writeonly captures(none) %0, ptr readonly captures(none) %.8.val.16.val.0.val) unnamed_addr #0 {
  %2 = getelementptr inbounds nuw i8, ptr %.8.val.16.val.0.val, i64 32
  br label %3

3:                                                ; preds = %14, %1
  %.0.in = phi ptr [ %2, %1 ], [ %15, %14 ]
  %.0 = load ptr, ptr %.0.in, align 8
  %4 = getelementptr inbounds nuw i8, ptr %.0, i64 48
  %5 = load ptr, ptr %4, align 8
  %6 = getelementptr i8, ptr %5, i64 16
  %.val = load ptr, ptr %6, align 8
  %7 = load ptr, ptr %.val, align 8
  %8 = getelementptr inbounds nuw i8, ptr %7, i64 8
  %9 = load ptr, ptr %8, align 8
  %10 = load i32, ptr %.0, align 4
  switch i32 %10, label %16 [
    i32 330, label %20
    i32 367, label %11
  ]

11:                                               ; preds = %3
  %12 = load i32, ptr %9, align 4
  %13 = icmp eq i32 %12, 7
  br i1 %13, label %20, label %14

14:                                               ; preds = %11
  %15 = getelementptr inbounds nuw i8, ptr %.0, i64 64
  br label %3

16:                                               ; preds = %3
  %17 = tail call zeroext i1 @errstart_cold(i32 noundef 21, ptr noundef nonnull @.str.2) #13
  tail call void @llvm.assume(i1 %17)
  %18 = load i32, ptr %.0, align 4
  %19 = tail call i32 (ptr, ...) @errmsg_internal(ptr noundef nonnull @.str.32, i32 noundef %18) #12
  tail call void @errfinish(ptr noundef nonnull @.str.4, i32 noundef 8343, ptr noundef nonnull @__func__.exec_save_simple_expr) #12
  unreachable

20:                                               ; preds = %3, %11
  %21 = getelementptr inbounds nuw i8, ptr %0, i64 56
  store ptr %9, ptr %21, align 8
  %22 = getelementptr inbounds nuw i8, ptr %0, i64 112
  store ptr null, ptr %22, align 8
  %23 = getelementptr inbounds nuw i8, ptr %0, i64 120
  store i8 0, ptr %23, align 8
  %24 = getelementptr inbounds nuw i8, ptr %0, i64 124
  store i32 0, ptr %24, align 4
  %25 = tail call i32 @exprType(ptr noundef %9) #12
  %26 = getelementptr inbounds nuw i8, ptr %0, i64 64
  store i32 %25, ptr %26, align 8
  %27 = tail call i32 @exprTypmod(ptr noundef %9) #12
  %28 = getelementptr inbounds nuw i8, ptr %0, i64 68
  store i32 %27, ptr %28, align 4
  %29 = tail call zeroext i1 @contain_mutable_functions(ptr noundef %9) #12
  %30 = getelementptr inbounds nuw i8, ptr %0, i64 72
  %31 = zext i1 %29 to i8
  store i8 %31, ptr %30, align 8
  ret void
}